target datalayout = "e-m:e-p270:32:32-p271:32:32-p272:64:64-i64:64-i128:128-f80:128-n8:16:32:64-S128"
target triple = "x86_64-pc-linux-gnu"

%struct.pointf_s = type { double, double }
%struct.Agobj_s = type { %struct.Agtag_s, ptr }
%struct.Agtag_s = type { i32, i64 }
%struct.Agrec_s = type { ptr, ptr }
%struct.boxf = type { %struct.pointf_s, %struct.pointf_s }
%struct.Agedgeinfo_t = type { %struct.Agrec_s, ptr, %struct.port, %struct.port, ptr, ptr, ptr, ptr, i8, i8, i8, i8, i8, ptr, ptr, double, double, %struct.Ppoly_t, i8, i8, i16, i32, i32, i32, i16, i32, ptr }
%struct.port = type { %struct.pointf_s, double, ptr, i8, i8, i8, i8, i8, i8, ptr }
%struct.Ppoly_t = type { ptr, i64 }
%struct.Agedge_s = type { %struct.Agobj_s, %struct.dtlink_s_, %struct.dtlink_s_, ptr }
%struct.dtlink_s_ = type { ptr, %union.anon }
%union.anon = type { ptr }
%struct.Agraphinfo_t = type { %struct.Agrec_s, ptr, ptr, %struct.boxf, [4 x %struct.pointf_s], i8, i8, i8, i8, i32, double, double, i16, ptr, ptr, ptr, ptr, i32, ptr, ptr, ptr, ptr, i16, i16, i32, ptr, ptr, ptr, ptr, ptr, i32, ptr, ptr, %struct.nlist_t, ptr, ptr, i32, i32, i8, i8, i32, i32, i32, ptr, ptr, ptr, ptr, i8, i8, i8, i8, i8 }
%struct.nlist_t = type { ptr, i64 }
%struct.textlabel_t = type { ptr, ptr, ptr, i32, double, %struct.pointf_s, %struct.pointf_s, %struct.pointf_s, %union.anon.1, i8, i8, i8 }
%union.anon.1 = type { %struct.anon.2 }
%struct.anon.2 = type { ptr, i64 }

; Function Attrs: nounwind uwtable
define double @selfRightSpace(ptr noundef %0) #0 {
  %2 = alloca ptr, align 8
  %3 = alloca double, align 8
  %4 = alloca double, align 8
  %5 = alloca ptr, align 8
  store ptr %0, ptr %2, align 8, !tbaa !61
  call void @llvm.lifetime.start.p0(i64 8, ptr %3) #12
  call void @llvm.lifetime.start.p0(i64 8, ptr %4) #12
  call void @llvm.lifetime.start.p0(i64 8, ptr %5) #12
  %6 = load ptr, ptr %2, align 8, !tbaa !61
  %7 = getelementptr inbounds nuw %struct.Agobj_s, ptr %6, i32 0, i32 1
  %8 = load ptr, ptr %7, align 8, !tbaa !32
  %9 = getelementptr inbounds nuw %struct.Agedgeinfo_t, ptr %8, i32 0, i32 4
  %10 = load ptr, ptr %9, align 8, !tbaa !171
  store ptr %10, ptr %5, align 8, !tbaa !172
  %11 = load ptr, ptr %2, align 8, !tbaa !61
  %12 = getelementptr inbounds nuw %struct.Agobj_s, ptr %11, i32 0, i32 1
  %13 = load ptr, ptr %12, align 8, !tbaa !32
  %14 = getelementptr inbounds nuw %struct.Agedgeinfo_t, ptr %13, i32 0, i32 2
  %15 = getelementptr inbounds nuw %struct.port, ptr %14, i32 0, i32 3
  %16 = load i8, ptr %15, align 8, !tbaa !173, !range !13, !noundef !14
  %17 = trunc i8 %16 to i1
  br i1 %17, label %26, label %18

18:                                               ; preds = %1
  %19 = load ptr, ptr %2, align 8, !tbaa !61
  %20 = getelementptr inbounds nuw %struct.Agobj_s, ptr %19, i32 0, i32 1
  %21 = load ptr, ptr %20, align 8, !tbaa !32
  %22 = getelementptr inbounds nuw %struct.Agedgeinfo_t, ptr %21, i32 0, i32 3
  %23 = getelementptr inbounds nuw %struct.port, ptr %22, i32 0, i32 3
  %24 = load i8, ptr %23, align 8, !tbaa !174, !range !13, !noundef !14
  %25 = trunc i8 %24 to i1
  br i1 %25, label %26, label %72

26:                                               ; preds = %18, %1
  %27 = load ptr, ptr %2, align 8, !tbaa !61
  %28 = getelementptr inbounds nuw %struct.Agobj_s, ptr %27, i32 0, i32 1
  %29 = load ptr, ptr %28, align 8, !tbaa !32
  %30 = getelementptr inbounds nuw %struct.Agedgeinfo_t, ptr %29, i32 0, i32 2
  %31 = getelementptr inbounds nuw %struct.port, ptr %30, i32 0, i32 8
  %32 = load i8, ptr %31, align 1, !tbaa !137
  %33 = zext i8 %32 to i32
  %34 = and i32 %33, 8
  %35 = icmp ne i32 %34, 0
  br i1 %35, label %114, label %36

36:                                               ; preds = %26
  %37 = load ptr, ptr %2, align 8, !tbaa !61
  %38 = getelementptr inbounds nuw %struct.Agobj_s, ptr %37, i32 0, i32 1
  %39 = load ptr, ptr %38, align 8, !tbaa !32
  %40 = getelementptr inbounds nuw %struct.Agedgeinfo_t, ptr %39, i32 0, i32 3
  %41 = getelementptr inbounds nuw %struct.port, ptr %40, i32 0, i32 8
  %42 = load i8, ptr %41, align 1, !tbaa !166
  %43 = zext i8 %42 to i32
  %44 = and i32 %43, 8
  %45 = icmp ne i32 %44, 0
  br i1 %45, label %114, label %46

46:                                               ; preds = %36
  %47 = load ptr, ptr %2, align 8, !tbaa !61
  %48 = getelementptr inbounds nuw %struct.Agobj_s, ptr %47, i32 0, i32 1
  %49 = load ptr, ptr %48, align 8, !tbaa !32
  %50 = getelementptr inbounds nuw %struct.Agedgeinfo_t, ptr %49, i32 0, i32 2
  %51 = getelementptr inbounds nuw %struct.port, ptr %50, i32 0, i32 8
  %52 = load i8, ptr %51, align 1, !tbaa !137
  %53 = zext i8 %52 to i32
  %54 = load ptr, ptr %2, align 8, !tbaa !61
  %55 = getelementptr inbounds nuw %struct.Agobj_s, ptr %54, i32 0, i32 1
  %56 = load ptr, ptr %55, align 8, !tbaa !32
  %57 = getelementptr inbounds nuw %struct.Agedgeinfo_t, ptr %56, i32 0, i32 3
  %58 = getelementptr inbounds nuw %struct.port, ptr %57, i32 0, i32 8
  %59 = load i8, ptr %58, align 1, !tbaa !166
  %60 = zext i8 %59 to i32
  %61 = icmp ne i32 %53, %60
  br i1 %61, label %72, label %62

62:                                               ; preds = %46
  %63 = load ptr, ptr %2, align 8, !tbaa !61
  %64 = getelementptr inbounds nuw %struct.Agobj_s, ptr %63, i32 0, i32 1
  %65 = load ptr, ptr %64, align 8, !tbaa !32
  %66 = getelementptr inbounds nuw %struct.Agedgeinfo_t, ptr %65, i32 0, i32 2
  %67 = getelementptr inbounds nuw %struct.port, ptr %66, i32 0, i32 8
  %68 = load i8, ptr %67, align 1, !tbaa !137
  %69 = zext i8 %68 to i32
  %70 = and i32 %69, 5
  %71 = icmp ne i32 %70, 0
  br i1 %71, label %114, label %72

72:                                               ; preds = %62, %46, %18
  store double 1.800000e+01, ptr %3, align 8, !tbaa !16
  %73 = load ptr, ptr %5, align 8, !tbaa !172
  %74 = icmp ne ptr %73, null
  br i1 %74, label %75, label %113

75:                                               ; preds = %72
  %76 = load ptr, ptr %2, align 8, !tbaa !61
  %77 = getelementptr inbounds nuw %struct.Agobj_s, ptr %76, i32 0, i32 0
  %78 = load i32, ptr %77, align 8
  %79 = and i32 %78, 3
  %80 = icmp eq i32 %79, 2
  br i1 %80, label %81, label %83

81:                                               ; preds = %75
  %82 = load ptr, ptr %2, align 8, !tbaa !61
  br label %86

83:                                               ; preds = %75
  %84 = load ptr, ptr %2, align 8, !tbaa !61
  %85 = getelementptr inbounds %struct.Agedge_s, ptr %84, i64 -1
  br label %86

86:                                               ; preds = %83, %81
  %87 = phi ptr [ %82, %81 ], [ %85, %83 ]
  %88 = getelementptr inbounds nuw %struct.Agedge_s, ptr %87, i32 0, i32 3
  %89 = load ptr, ptr %88, align 8, !tbaa !88
  %90 = call ptr @agraphof(ptr noundef %89)
  %91 = getelementptr inbounds nuw %struct.Agobj_s, ptr %90, i32 0, i32 1
  %92 = load ptr, ptr %91, align 8, !tbaa !32
  %93 = getelementptr inbounds nuw %struct.Agraphinfo_t, ptr %92, i32 0, i32 9
  %94 = load i32, ptr %93, align 4, !tbaa !175
  %95 = and i32 %94, 3
  %96 = and i32 %95, 1
  %97 = icmp ne i32 %96, 0
  br i1 %97, label %98, label %103

98:                                               ; preds = %86
  %99 = load ptr, ptr %5, align 8, !tbaa !172
  %100 = getelementptr inbounds nuw %struct.textlabel_t, ptr %99, i32 0, i32 5
  %101 = getelementptr inbounds nuw %struct.pointf_s, ptr %100, i32 0, i32 1
  %102 = load double, ptr %101, align 8, !tbaa !176
  br label %108

103:                                              ; preds = %86
  %104 = load ptr, ptr %5, align 8, !tbaa !172
  %105 = getelementptr inbounds nuw %struct.textlabel_t, ptr %104, i32 0, i32 5
  %106 = getelementptr inbounds nuw %struct.pointf_s, ptr %105, i32 0, i32 0
  %107 = load double, ptr %106, align 8, !tbaa !178
  br label %108

108:                                              ; preds = %103, %98
  %109 = phi double [ %102, %98 ], [ %107, %103 ]
  store double %109, ptr %4, align 8, !tbaa !16
  %110 = load double, ptr %4, align 8, !tbaa !16
  %111 = load double, ptr %3, align 8, !tbaa !16
  %112 = fadd double %111, %110
  store double %112, ptr %3, align 8, !tbaa !16
  br label %113

113:                                              ; preds = %108, %72
  br label %115

114:                                              ; preds = %62, %36, %26
  store double 0.000000e+00, ptr %3, align 8, !tbaa !16
  br label %115

115:                                              ; preds = %114, %113
  %116 = load double, ptr %3, align 8, !tbaa !16
  call void @llvm.lifetime.end.p0(i64 8, ptr %5) #12
  call void @llvm.lifetime.end.p0(i64 8, ptr %4) #12
  call void @llvm.lifetime.end.p0(i64 8, ptr %3) #12
  ret double %116
}