; Function Attrs: nounwind uwtable
define double @selfRightSpace(ptr noundef readonly captures(none) %0) local_unnamed_addr #0 {
  %2 = getelementptr inbounds nuw i8, ptr %0, i64 16
  %3 = load ptr, ptr %2, align 8, !tbaa !9
  %4 = getelementptr inbounds nuw i8, ptr %3, i64 120
  %5 = load ptr, ptr %4, align 8, !tbaa !145
  %6 = getelementptr inbounds nuw i8, ptr %3, i64 56
  %7 = load i8, ptr %6, align 8, !tbaa !146, !range !72, !noundef !73
  %8 = trunc nuw i8 %7 to i1
  br i1 %8, label %13, label %9

9:                                                ; preds = %1
  %10 = getelementptr inbounds nuw i8, ptr %3, i64 104
  %11 = load i8, ptr %10, align 8, !tbaa !147, !range !72, !noundef !73
  %12 = trunc nuw i8 %11 to i1
  br i1 %12, label %13, label %24

13:                                               ; preds = %9, %1
  %14 = getelementptr inbounds nuw i8, ptr %3, i64 61
  %15 = load i8, ptr %14, align 1, !tbaa !108
  %16 = zext i8 %15 to i32
  %17 = and i32 %16, 8
  %.not = icmp eq i32 %17, 0
  br i1 %.not, label %18, label %40

18:                                               ; preds = %13
  %19 = getelementptr inbounds nuw i8, ptr %3, i64 109
  %20 = load i8, ptr %19, align 1, !tbaa !140
  %21 = and i8 %20, 8
  %.not19 = icmp eq i8 %21, 0
  br i1 %.not19, label %22, label %40

22:                                               ; preds = %18
  %.not20 = icmp ne i8 %15, %20
  %23 = and i32 %16, 5
  %.not21 = icmp eq i32 %23, 0
  %or.cond = or i1 %.not21, %.not20
  br i1 %or.cond, label %24, label %40

24:                                               ; preds = %22, %9
  %.not22 = icmp eq ptr %5, null
  br i1 %.not22, label %40, label %25

25:                                               ; preds = %24
  %26 = load i32, ptr %0, align 8
  %27 = and i32 %26, 3
  %28 = icmp eq i32 %27, 2
  %.idx = select i1 %28, i64 0, i64 -64
  %29 = getelementptr inbounds i8, ptr %0, i64 %.idx
  %30 = getelementptr inbounds nuw i8, ptr %29, i64 56
  %31 = load ptr, ptr %30, align 8, !tbaa !65
  %32 = tail call ptr @agraphof(ptr noundef %31) #17
  %33 = getelementptr inbounds nuw i8, ptr %32, i64 16
  %34 = load ptr, ptr %33, align 8, !tbaa !9
  %35 = getelementptr inbounds nuw i8, ptr %34, i64 132
  %36 = load i32, ptr %35, align 4, !tbaa !148
  %37 = and i32 %36, 1
  %.not23 = icmp eq i32 %37, 0
  %.in.v = select i1 %.not23, i64 40, i64 48
  %.in = getelementptr inbounds nuw i8, ptr %5, i64 %.in.v
  %38 = load double, ptr %.in, align 8, !tbaa !3
  %39 = fadd double %38, 1.800000e+01
  br label %40

40:                                               ; preds = %13, %18, %22, %24, %25
  %.0 = phi double [ %39, %25 ], [ 1.800000e+01, %24 ], [ 0.000000e+00, %22 ], [ 0.000000e+00, %18 ], [ 0.000000e+00, %13 ]
  ret double %.0
}